target datalayout = "e-m:e-p270:32:32-p271:32:32-p272:64:64-i64:64-i128:128-f80:128-n8:16:32:64-S128"
target triple = "x86_64-pc-linux-gnu"

%"struct.faiss::FlatCodesDistanceComputer" = type { %"struct.faiss::DistanceComputer", ptr, i64 }
%"struct.faiss::DistanceComputer" = type { ptr }
%"struct.faiss::(anonymous namespace)::FlatL2WithNormsDis" = type <{ %"struct.faiss::FlatCodesDistanceComputer", i64, i64, ptr, ptr, i64, ptr, float, [4 x i8] }>

; Function Attrs: mustprogress uwtable
define internal noundef float @_ZN5faiss12_GLOBAL__N_118FlatL2WithNormsDis16distance_to_codeEPKh(ptr noundef nonnull align 8 dereferenceable(76) %0, ptr noundef %1) unnamed_addr #2 align 2 {
  %3 = alloca ptr, align 8
  %4 = alloca ptr, align 8
  store ptr %0, ptr %3, align 8, !tbaa !152
  store ptr %1, ptr %4, align 8, !tbaa !55
  %5 = load ptr, ptr %3, align 8
  %6 = getelementptr inbounds nuw %"struct.faiss::(anonymous namespace)::FlatL2WithNormsDis", ptr %5, i32 0, i32 5
  %7 = load i64, ptr %6, align 8, !tbaa !159
  %8 = add i64 %7, 1
  store i64 %8, ptr %6, align 8, !tbaa !159
  %9 = getelementptr inbounds nuw %"struct.faiss::(anonymous namespace)::FlatL2WithNormsDis", ptr %5, i32 0, i32 3
  %10 = load ptr, ptr %9, align 8, !tbaa !157
  %11 = load ptr, ptr %4, align 8, !tbaa !55
  %12 = getelementptr inbounds nuw %"struct.faiss::(anonymous namespace)::FlatL2WithNormsDis", ptr %5, i32 0, i32 1
  %13 = load i64, ptr %12, align 8, !tbaa !154
  %14 = call noundef float @_ZN5faiss10fvec_L2sqrEPKfS1_m(ptr noundef %10, ptr noundef %11, i64 noundef %13)
  ret float %14
}