; Function Attrs: mustprogress uwtable
define internal noundef float @_ZN5faiss12_GLOBAL__N_118FlatL2WithNormsDis16distance_to_codeEPKh(ptr noundef nonnull align 8 captures(none) dereferenceable(76) %0, ptr noundef %1) unnamed_addr #2 align 2 {
  %3 = getelementptr inbounds nuw i8, ptr %0, i64 56
  %4 = load i64, ptr %3, align 8, !tbaa !74
  %5 = add i64 %4, 1
  store i64 %5, ptr %3, align 8, !tbaa !74
  %6 = getelementptr inbounds nuw i8, ptr %0, i64 40
  %7 = load ptr, ptr %6, align 8, !tbaa !72
  %8 = getelementptr inbounds nuw i8, ptr %0, i64 24
  %9 = load i64, ptr %8, align 8, !tbaa !69
  %10 = tail call noundef float @_ZN5faiss10fvec_L2sqrEPKfS1_m(ptr noundef %7, ptr noundef %1, i64 noundef %9)
  ret float %10
}